; Function Attrs: nounwind uwtable
define ptr @Ivy_Maj(ptr noundef %0, ptr noundef %1, ptr noundef %2, ptr noundef %3) local_unnamed_addr #0 {
  %5 = icmp eq ptr %1, %2
  br i1 %5, label %Ivy_And.exit, label %6

6:                                                ; preds = %4
  %7 = ptrtoint ptr %2 to i64
  %8 = xor i64 %7, 1
  %9 = inttoptr i64 %8 to ptr
  %10 = icmp eq ptr %1, %9
  br i1 %10, label %11, label %17

11:                                               ; preds = %6
  %12 = getelementptr inbounds nuw i8, ptr %0, i64 32
  %13 = load ptr, ptr %12, align 8, !tbaa !3
  %14 = ptrtoint ptr %13 to i64
  %15 = xor i64 %14, 1
  %16 = inttoptr i64 %15 to ptr
  br label %Ivy_And.exit

17:                                               ; preds = %6
  %18 = ptrtoint ptr %1 to i64
  %19 = and i64 %18, -2
  %20 = inttoptr i64 %19 to ptr
  %21 = getelementptr inbounds nuw i8, ptr %0, i64 32
  %22 = load ptr, ptr %21, align 8, !tbaa !3
  %23 = icmp eq ptr %22, %20
  br i1 %23, label %24, label %29

24:                                               ; preds = %17
  %25 = icmp eq ptr %1, %20
  br i1 %25, label %Ivy_And.exit, label %26

26:                                               ; preds = %24
  %27 = or i64 %18, 1
  %28 = inttoptr i64 %27 to ptr
  br label %Ivy_And.exit

29:                                               ; preds = %17
  %30 = and i64 %7, -2
  %31 = inttoptr i64 %30 to ptr
  %32 = icmp eq ptr %22, %31
  br i1 %32, label %33, label %39

33:                                               ; preds = %29
  %34 = icmp eq ptr %2, %22
  br i1 %34, label %Ivy_And.exit, label %35

35:                                               ; preds = %33
  %36 = ptrtoint ptr %22 to i64
  %37 = xor i64 %36, 1
  %38 = inttoptr i64 %37 to ptr
  br label %Ivy_And.exit

39:                                               ; preds = %29
  %40 = tail call ptr @Ivy_CanonAnd(ptr noundef nonnull %0, ptr noundef %1, ptr noundef %2) #2
  br label %Ivy_And.exit

Ivy_And.exit:                                     ; preds = %4, %11, %24, %26, %33, %35, %39
  %.0.i = phi ptr [ %16, %11 ], [ %40, %39 ], [ %1, %4 ], [ %28, %26 ], [ %2, %24 ], [ %38, %35 ], [ %1, %33 ]
  %41 = icmp eq ptr %1, %3
  br i1 %41, label %Ivy_And.exit12, label %42

42:                                               ; preds = %Ivy_And.exit
  %43 = ptrtoint ptr %3 to i64
  %44 = xor i64 %43, 1
  %45 = inttoptr i64 %44 to ptr
  %46 = icmp eq ptr %1, %45
  br i1 %46, label %47, label %53

47:                                               ; preds = %42
  %48 = getelementptr inbounds nuw i8, ptr %0, i64 32
  %49 = load ptr, ptr %48, align 8, !tbaa !3
  %50 = ptrtoint ptr %49 to i64
  %51 = xor i64 %50, 1
  %52 = inttoptr i64 %51 to ptr
  br label %Ivy_And.exit12

53:                                               ; preds = %42
  %54 = ptrtoint ptr %1 to i64
  %55 = and i64 %54, -2
  %56 = inttoptr i64 %55 to ptr
  %57 = getelementptr inbounds nuw i8, ptr %0, i64 32
  %58 = load ptr, ptr %57, align 8, !tbaa !3
  %59 = icmp eq ptr %58, %56
  br i1 %59, label %60, label %65

60:                                               ; preds = %53
  %61 = icmp eq ptr %1, %56
  br i1 %61, label %Ivy_And.exit12, label %62

62:                                               ; preds = %60
  %63 = or i64 %54, 1
  %64 = inttoptr i64 %63 to ptr
  br label %Ivy_And.exit12

65:                                               ; preds = %53
  %66 = and i64 %43, -2
  %67 = inttoptr i64 %66 to ptr
  %68 = icmp eq ptr %58, %67
  br i1 %68, label %69, label %75

69:                                               ; preds = %65
  %70 = icmp eq ptr %3, %58
  br i1 %70, label %Ivy_And.exit12, label %71

71:                                               ; preds = %69
  %72 = ptrtoint ptr %58 to i64
  %73 = xor i64 %72, 1
  %74 = inttoptr i64 %73 to ptr
  br label %Ivy_And.exit12

75:                                               ; preds = %65
  %76 = tail call ptr @Ivy_CanonAnd(ptr noundef nonnull %0, ptr noundef %1, ptr noundef %3) #2
  br label %Ivy_And.exit12

Ivy_And.exit12:                                   ; preds = %Ivy_And.exit, %47, %60, %62, %69, %71, %75
  %.0.i11 = phi ptr [ %52, %47 ], [ %76, %75 ], [ %1, %Ivy_And.exit ], [ %64, %62 ], [ %3, %60 ], [ %74, %71 ], [ %1, %69 ]
  %77 = ptrtoint ptr %.0.i to i64
  %78 = xor i64 %77, 1
  %79 = inttoptr i64 %78 to ptr
  %80 = ptrtoint ptr %.0.i11 to i64
  %81 = xor i64 %80, 1
  %82 = inttoptr i64 %81 to ptr
  %83 = icmp eq ptr %.0.i, %.0.i11
  br i1 %83, label %Ivy_Or.exit, label %84

84:                                               ; preds = %Ivy_And.exit12
  %85 = icmp eq ptr %.0.i11, %79
  br i1 %85, label %86, label %91

86:                                               ; preds = %84
  %87 = getelementptr inbounds nuw i8, ptr %0, i64 32
  %88 = load ptr, ptr %87, align 8, !tbaa !3
  %89 = ptrtoint ptr %88 to i64
  %90 = xor i64 %89, 1
  br label %Ivy_Or.exit

91:                                               ; preds = %84
  %92 = and i64 %77, -2
  %93 = inttoptr i64 %92 to ptr
  %94 = getelementptr inbounds nuw i8, ptr %0, i64 32
  %95 = load ptr, ptr %94, align 8, !tbaa !3
  %96 = icmp eq ptr %95, %93
  br i1 %96, label %97, label %100

97:                                               ; preds = %91
  %98 = icmp eq i64 %78, %92
  %99 = or i64 %77, 1
  %spec.select.i = select i1 %98, i64 %81, i64 %99
  br label %Ivy_Or.exit

100:                                              ; preds = %91
  %101 = and i64 %80, -2
  %102 = inttoptr i64 %101 to ptr
  %103 = icmp eq ptr %95, %102
  br i1 %103, label %104, label %109

104:                                              ; preds = %100
  %105 = icmp eq ptr %95, %82
  br i1 %105, label %Ivy_Or.exit, label %106

106:                                              ; preds = %104
  %107 = ptrtoint ptr %95 to i64
  %108 = xor i64 %107, 1
  br label %Ivy_Or.exit

109:                                              ; preds = %100
  %110 = tail call ptr @Ivy_CanonAnd(ptr noundef nonnull %0, ptr noundef %79, ptr noundef %82) #2
  %111 = ptrtoint ptr %110 to i64
  br label %Ivy_Or.exit

Ivy_Or.exit:                                      ; preds = %Ivy_And.exit12, %86, %97, %104, %106, %109
  %.0.i.i = phi i64 [ %90, %86 ], [ %111, %109 ], [ %78, %Ivy_And.exit12 ], [ %108, %106 ], [ %78, %104 ], [ %spec.select.i, %97 ]
  %112 = xor i64 %.0.i.i, 1
  %113 = inttoptr i64 %112 to ptr
  %114 = icmp eq ptr %2, %3
  br i1 %114, label %Ivy_And.exit14, label %115

115:                                              ; preds = %Ivy_Or.exit
  %116 = ptrtoint ptr %3 to i64
  %117 = xor i64 %116, 1
  %118 = inttoptr i64 %117 to ptr
  %119 = icmp eq ptr %2, %118
  br i1 %119, label %120, label %126

120:                                              ; preds = %115
  %121 = getelementptr inbounds nuw i8, ptr %0, i64 32
  %122 = load ptr, ptr %121, align 8, !tbaa !3
  %123 = ptrtoint ptr %122 to i64
  %124 = xor i64 %123, 1
  %125 = inttoptr i64 %124 to ptr
  br label %Ivy_And.exit14

126:                                              ; preds = %115
  %127 = ptrtoint ptr %2 to i64
  %128 = and i64 %127, -2
  %129 = inttoptr i64 %128 to ptr
  %130 = getelementptr inbounds nuw i8, ptr %0, i64 32
  %131 = load ptr, ptr %130, align 8, !tbaa !3
  %132 = icmp eq ptr %131, %129
  br i1 %132, label %133, label %138

133:                                              ; preds = %126
  %134 = icmp eq ptr %2, %129
  br i1 %134, label %Ivy_And.exit14, label %135

135:                                              ; preds = %133
  %136 = or i64 %127, 1
  %137 = inttoptr i64 %136 to ptr
  br label %Ivy_And.exit14

138:                                              ; preds = %126
  %139 = and i64 %116, -2
  %140 = inttoptr i64 %139 to ptr
  %141 = icmp eq ptr %131, %140
  br i1 %141, label %142, label %147

142:                                              ; preds = %138
  %143 = icmp eq ptr %3, %140
  br i1 %143, label %Ivy_And.exit14, label %144

144:                                              ; preds = %142
  %145 = or i64 %116, 1
  %146 = inttoptr i64 %145 to ptr
  br label %Ivy_And.exit14

147:                                              ; preds = %138
  %148 = tail call ptr @Ivy_CanonAnd(ptr noundef nonnull %0, ptr noundef %2, ptr noundef %3) #2
  br label %Ivy_And.exit14

Ivy_And.exit14:                                   ; preds = %Ivy_Or.exit, %120, %133, %135, %142, %144, %147
  %.0.i13 = phi ptr [ %125, %120 ], [ %148, %147 ], [ %2, %Ivy_Or.exit ], [ %137, %135 ], [ %3, %133 ], [ %146, %144 ], [ %2, %142 ]
  %149 = inttoptr i64 %.0.i.i to ptr
  %150 = ptrtoint ptr %.0.i13 to i64
  %151 = xor i64 %150, 1
  %152 = inttoptr i64 %151 to ptr
  %153 = icmp eq ptr %.0.i13, %113
  br i1 %153, label %Ivy_Or.exit17, label %154

154:                                              ; preds = %Ivy_And.exit14
  %155 = icmp eq ptr %.0.i13, %149
  br i1 %155, label %156, label %161

156:                                              ; preds = %154
  %157 = getelementptr inbounds nuw i8, ptr %0, i64 32
  %158 = load ptr, ptr %157, align 8, !tbaa !3
  %159 = ptrtoint ptr %158 to i64
  %160 = xor i64 %159, 1
  br label %Ivy_Or.exit17

161:                                              ; preds = %154
  %162 = and i64 %.0.i.i, -2
  %163 = inttoptr i64 %162 to ptr
  %164 = getelementptr inbounds nuw i8, ptr %0, i64 32
  %165 = load ptr, ptr %164, align 8, !tbaa !3
  %166 = icmp eq ptr %165, %163
  br i1 %166, label %167, label %170

167:                                              ; preds = %161
  %168 = icmp eq i64 %.0.i.i, %162
  %169 = or i64 %.0.i.i, 1
  %spec.select.i16 = select i1 %168, i64 %151, i64 %169
  br label %Ivy_Or.exit17

170:                                              ; preds = %161
  %171 = and i64 %150, -2
  %172 = inttoptr i64 %171 to ptr
  %173 = icmp eq ptr %165, %172
  br i1 %173, label %174, label %179

174:                                              ; preds = %170
  %175 = icmp eq ptr %165, %152
  br i1 %175, label %Ivy_Or.exit17, label %176

176:                                              ; preds = %174
  %177 = ptrtoint ptr %165 to i64
  %178 = xor i64 %177, 1
  br label %Ivy_Or.exit17

179:                                              ; preds = %170
  %180 = tail call ptr @Ivy_CanonAnd(ptr noundef nonnull %0, ptr noundef %149, ptr noundef %152) #2
  %181 = ptrtoint ptr %180 to i64
  br label %Ivy_Or.exit17

Ivy_Or.exit17:                                    ; preds = %Ivy_And.exit14, %156, %167, %174, %176, %179
  %.0.i.i15 = phi i64 [ %160, %156 ], [ %181, %179 ], [ %.0.i.i, %Ivy_And.exit14 ], [ %178, %176 ], [ %.0.i.i, %174 ], [ %spec.select.i16, %167 ]
  %182 = xor i64 %.0.i.i15, 1
  %183 = inttoptr i64 %182 to ptr
  ret ptr %183
}